target datalayout = "e-m:e-p270:32:32-p271:32:32-p272:64:64-i64:64-i128:128-f80:128-n8:16:32:64-S128"
target triple = "x86_64-pc-linux-gnu"

@ext_list = internal global ptr null, align 8
@.str = private unnamed_addr constant [32 x i8] c"../openssl/crypto/x509/v3_lib.c\00", align 1
@__func__.X509V3_EXT_add = private unnamed_addr constant [15 x i8] c"X509V3_EXT_add\00", align 1

; Function Attrs: inlinehint nounwind uwtable
define internal ptr @ossl_check_X509V3_EXT_METHOD_type(ptr noundef %0) #2 {
  %2 = alloca ptr, align 8
  store ptr %0, ptr %2, align 8, !tbaa !3
  %3 = load ptr, ptr %2, align 8, !tbaa !3
  ret ptr %3
}

; Function Attrs: inlinehint nounwind uwtable
define internal ptr @ossl_check_X509V3_EXT_METHOD_sk_type(ptr noundef %0) #2 {
  %2 = alloca ptr, align 8
  store ptr %0, ptr %2, align 8, !tbaa !8
  %3 = load ptr, ptr %2, align 8, !tbaa !8
  ret ptr %3
}

; Function Attrs: inlinehint nounwind uwtable
define internal ptr @ossl_check_X509V3_EXT_METHOD_compfunc_type(ptr noundef %0) #2 {
  %2 = alloca ptr, align 8
  store ptr %0, ptr %2, align 8, !tbaa !10
  %3 = load ptr, ptr %2, align 8, !tbaa !10
  ret ptr %3
}

; Function Attrs: nounwind uwtable
define i32 @X509V3_EXT_add(ptr noundef %0) #0 {
  %2 = alloca i32, align 4
  %3 = alloca ptr, align 8
  store ptr %0, ptr %3, align 8, !tbaa !3
  %4 = load ptr, ptr @ext_list, align 8, !tbaa !8
  %5 = icmp eq ptr %4, null
  br i1 %5, label %6, label %11

6:                                                ; preds = %1
  %7 = call ptr @ossl_check_X509V3_EXT_METHOD_compfunc_type(ptr noundef @ext_cmp)
  %8 = call ptr @OPENSSL_sk_new(ptr noundef %7)
  store ptr %8, ptr @ext_list, align 8, !tbaa !8
  %9 = icmp eq ptr %8, null
  br i1 %9, label %10, label %11

10:                                               ; preds = %6
  call void @ERR_new()
  call void @ERR_set_debug(ptr noundef @.str, i32 noundef 29, ptr noundef @__func__.X509V3_EXT_add)
  call void (i32, i32, ptr, ...) @ERR_set_error(i32 noundef 34, i32 noundef 524303, ptr noundef null)
  store i32 0, ptr %2, align 4
  br label %20

11:                                               ; preds = %6, %1
  %12 = load ptr, ptr @ext_list, align 8, !tbaa !8
  %13 = call ptr @ossl_check_X509V3_EXT_METHOD_sk_type(ptr noundef %12)
  %14 = load ptr, ptr %3, align 8, !tbaa !3
  %15 = call ptr @ossl_check_X509V3_EXT_METHOD_type(ptr noundef %14)
  %16 = call i32 @OPENSSL_sk_push(ptr noundef %13, ptr noundef %15)
  %17 = icmp ne i32 %16, 0
  br i1 %17, label %19, label %18

18:                                               ; preds = %11
  call void @ERR_new()
  call void @ERR_set_debug(ptr noundef @.str, i32 noundef 33, ptr noundef @__func__.X509V3_EXT_add)
  call void (i32, i32, ptr, ...) @ERR_set_error(i32 noundef 34, i32 noundef 524303, ptr noundef null)
  store i32 0, ptr %2, align 4
  br label %20

19:                                               ; preds = %11
  store i32 1, ptr %2, align 4
  br label %20

20:                                               ; preds = %19, %18, %10
  %21 = load i32, ptr %2, align 4
  ret i32 %21
}