; Function Attrs: nounwind uwtable
define range(i32 0, 2) i32 @X509V3_EXT_add(ptr noundef %0) local_unnamed_addr #0 {
  %2 = load ptr, ptr @ext_list, align 8, !tbaa !3
  %3 = icmp eq ptr %2, null
  br i1 %3, label %4, label %7

4:                                                ; preds = %1
  %5 = tail call ptr @OPENSSL_sk_new(ptr noundef nonnull @ext_cmp) #7
  store ptr %5, ptr @ext_list, align 8, !tbaa !3
  %6 = icmp eq ptr %5, null
  br i1 %6, label %.sink.split, label %7

7:                                                ; preds = %4, %1
  %8 = phi ptr [ %5, %4 ], [ %2, %1 ]
  %9 = tail call i32 @OPENSSL_sk_push(ptr noundef nonnull %8, ptr noundef %0) #7
  %.not = icmp eq i32 %9, 0
  br i1 %.not, label %.sink.split, label %10

.sink.split:                                      ; preds = %7, %4
  %.sink = phi i32 [ 29, %4 ], [ 33, %7 ]
  tail call void @ERR_new() #7
  tail call void @ERR_set_debug(ptr noundef nonnull @.str, i32 noundef %.sink, ptr noundef nonnull @__func__.X509V3_EXT_add) #7
  tail call void (i32, i32, ptr, ...) @ERR_set_error(i32 noundef 34, i32 noundef 524303, ptr noundef null) #7
  br label %10

10:                                               ; preds = %.sink.split, %7
  %.0 = phi i32 [ 1, %7 ], [ 0, %.sink.split ]
  ret i32 %.0
}